csympy.matrices.immutable
ImmutableMatrix
p0
(csympy.core.numbers
Integer
p1
(I4
tp2
Rp3
(dp4
bg3
csympy.core.containers
Tuple
p5
(csympy.core.numbers
Zero
p6
(I0
tp7
Rp8
(dp9
bg8
csympy.core.numbers
One
p10
(I1
tp11
Rp12
(dp13
bg8
g8
csympy.core.numbers
NegativeOne
p14
(I-1
tp15
Rp16
(dp17
bg8
g8
g12
g8
g8
g8
g8
g8
g8
g12
tp18
Rp19
(dp20
btp21
Rp22
(dp23
b.